; Function Attrs: nounwind uwtable
define hidden noundef zeroext i1 @X11_SetWindowMouseRect(ptr noundef readonly captures(none) %0, ptr noundef %1) local_unnamed_addr #0 {
  %3 = getelementptr inbounds nuw i8, ptr %1, i64 336
  %4 = getelementptr inbounds nuw i8, ptr %1, i64 344
  %5 = load i32, ptr %4, align 4
  %6 = icmp slt i32 %5, 1
  br i1 %6, label %SDL_RectEmpty.exit.thread, label %SDL_RectEmpty.exit

SDL_RectEmpty.exit:                               ; preds = %2
  %7 = getelementptr inbounds nuw i8, ptr %1, i64 348
  %8 = load i32, ptr %7, align 4
  %9 = icmp slt i32 %8, 1
  br i1 %9, label %SDL_RectEmpty.exit.thread, label %45

SDL_RectEmpty.exit.thread:                        ; preds = %2, %SDL_RectEmpty.exit
  %10 = getelementptr inbounds nuw i8, ptr %0, i64 1656
  %11 = load ptr, ptr %10, align 8
  %12 = getelementptr inbounds nuw i8, ptr %11, i64 160
  %13 = load ptr, ptr %12, align 8
  %.not.i = icmp eq ptr %13, null
  br i1 %.not.i, label %28, label %14

14:                                               ; preds = %SDL_RectEmpty.exit.thread
  %15 = getelementptr inbounds nuw i8, ptr %13, i64 392
  %16 = load ptr, ptr %15, align 8
  %17 = getelementptr inbounds nuw i8, ptr %16, i64 400
  br label %18

18:                                               ; preds = %24, %14
  %indvars.iv.i.i = phi i64 [ 0, %14 ], [ %indvars.iv.next.i.i, %24 ]
  %19 = getelementptr inbounds nuw [4 x i64], ptr %17, i64 0, i64 %indvars.iv.i.i
  %20 = load i64, ptr %19, align 8
  %.not15.i.i = icmp eq i64 %20, 0
  br i1 %.not15.i.i, label %24, label %21

21:                                               ; preds = %18
  %22 = load ptr, ptr @X11_XFixesDestroyPointerBarrier, align 8
  %23 = load ptr, ptr %11, align 8
  tail call void %22(ptr noundef %23, i64 noundef %20) #7
  store i64 0, ptr %19, align 8
  br label %24

24:                                               ; preds = %21, %18
  %indvars.iv.next.i.i = add nuw nsw i64 %indvars.iv.i.i, 1
  %exitcond.not.i.i = icmp eq i64 %indvars.iv.next.i.i, 4
  br i1 %exitcond.not.i.i, label %X11_DestroyPointerBarrier.exit.i, label %18, !llvm.loop !3

X11_DestroyPointerBarrier.exit.i:                 ; preds = %24
  %25 = load ptr, ptr @X11_XFlush, align 8
  %26 = load ptr, ptr %11, align 8
  %27 = tail call i32 %25(ptr noundef %26) #7
  store ptr null, ptr %12, align 8
  %.pre = load ptr, ptr %10, align 8
  br label %28

28:                                               ; preds = %X11_DestroyPointerBarrier.exit.i, %SDL_RectEmpty.exit.thread
  %29 = phi ptr [ %.pre, %X11_DestroyPointerBarrier.exit.i ], [ %11, %SDL_RectEmpty.exit.thread ]
  %30 = getelementptr inbounds nuw i8, ptr %1, i64 392
  %31 = load ptr, ptr %30, align 8
  %32 = getelementptr inbounds nuw i8, ptr %31, i64 400
  br label %33

33:                                               ; preds = %39, %28
  %indvars.iv.i74.i = phi i64 [ 0, %28 ], [ %indvars.iv.next.i76.i, %39 ]
  %34 = getelementptr inbounds nuw [4 x i64], ptr %32, i64 0, i64 %indvars.iv.i74.i
  %35 = load i64, ptr %34, align 8
  %.not15.i75.i = icmp eq i64 %35, 0
  br i1 %.not15.i75.i, label %39, label %36

36:                                               ; preds = %33
  %37 = load ptr, ptr @X11_XFixesDestroyPointerBarrier, align 8
  %38 = load ptr, ptr %29, align 8
  tail call void %37(ptr noundef %38, i64 noundef %35) #7
  store i64 0, ptr %34, align 8
  br label %39

39:                                               ; preds = %36, %33
  %indvars.iv.next.i76.i = add nuw nsw i64 %indvars.iv.i74.i, 1
  %exitcond.not.i77.i = icmp eq i64 %indvars.iv.next.i76.i, 4
  br i1 %exitcond.not.i77.i, label %X11_ConfineCursorWithFlags.exit, label %33, !llvm.loop !3

X11_ConfineCursorWithFlags.exit:                  ; preds = %39
  %40 = load ptr, ptr @X11_XFlush, align 8
  %41 = load ptr, ptr %29, align 8
  %42 = tail call i32 %40(ptr noundef %41) #7
  %43 = getelementptr inbounds nuw i8, ptr %29, i64 160
  store ptr null, ptr %43, align 8
  %44 = getelementptr inbounds nuw i8, ptr %31, i64 392
  store i8 0, ptr %44, align 8
  br label %56

45:                                               ; preds = %SDL_RectEmpty.exit
  %46 = getelementptr inbounds nuw i8, ptr %1, i64 72
  %47 = load i64, ptr %46, align 8
  %48 = and i64 %47, 512
  %.not = icmp eq i64 %48, 0
  br i1 %.not, label %51, label %49

49:                                               ; preds = %45
  %50 = tail call zeroext i1 @X11_ConfineCursorWithFlags(ptr noundef %0, ptr noundef nonnull %1, ptr noundef nonnull %3, i32 noundef 0)
  br label %56

51:                                               ; preds = %45
  %52 = getelementptr inbounds nuw i8, ptr %1, i64 392
  %53 = load ptr, ptr %52, align 8
  %54 = getelementptr inbounds nuw i8, ptr %53, i64 432
  tail call void @llvm.memcpy.p0.p0.i64(ptr noundef nonnull align 8 dereferenceable(16) %54, ptr noundef nonnull align 8 dereferenceable(16) %3, i64 16, i1 false)
  %55 = getelementptr inbounds nuw i8, ptr %53, i64 392
  store i8 1, ptr %55, align 8
  br label %56

56:                                               ; preds = %49, %51, %X11_ConfineCursorWithFlags.exit
  ret i1 true
}